; ModuleID = '15/1231.c'
source_filename = "15/1231.c"
target datalayout = "e-m:e-p270:32:32-p271:32:32-p272:64:64-i64:64-f80:128-n8:16:32:64-S128"
target triple = "x86_64-pc-linux-gnu"

@.str = private unnamed_addr constant [3 x i8] c"%d\00", align 1

; Function Attrs: noinline nounwind uwtable
define dso_local void @main() #0 {
  %1 = alloca i32, align 4
  %2 = alloca [1000000 x i32], align 16
  %3 = alloca i32, align 4
  %4 = alloca i32, align 4
  %5 = alloca i32, align 4
  %6 = alloca i32, align 4
  %7 = alloca i32, align 4
  %8 = alloca i32, align 4
  %9 = alloca i32, align 4
  %10 = call i32 (i8*, ...) @__isoc99_scanf(i8* getelementptr inbounds ([3 x i8], [3 x i8]* @.str, i64 0, i64 0), i32* %1)
  %11 = load i32, i32* %1, align 4
  %12 = load i32, i32* %1, align 4
  %13 = mul nsw i32 %11, %12
  store i32 %13, i32* %3, align 4
  store i32 0, i32* %4, align 4
  br label %14

14:                                               ; preds = %23, %0
  %15 = load i32, i32* %4, align 4
  %16 = load i32, i32* %3, align 4
  %17 = icmp slt i32 %15, %16
  br i1 %17, label %18, label %26

18:                                               ; preds = %14
  %19 = load i32, i32* %4, align 4
  %20 = sext i32 %19 to i64
  %21 = getelementptr inbounds [1000000 x i32], [1000000 x i32]* %2, i64 0, i64 %20
  %22 = call i32 (i8*, ...) @__isoc99_scanf(i8* getelementptr inbounds ([3 x i8], [3 x i8]* @.str, i64 0, i64 0), i32* %21)
  br label %23

23:                                               ; preds = %18
  %24 = load i32, i32* %4, align 4
  %25 = add nsw i32 %24, 1
  store i32 %25, i32* %4, align 4
  br label %14

26:                                               ; preds = %14
  store i32 0, i32* %4, align 4
  br label %27

27:                                               ; preds = %46, %26
  %28 = load i32, i32* %4, align 4
  %29 = load i32, i32* %3, align 4
  %30 = icmp slt i32 %28, %29
  br i1 %30, label %31, label %49

31:                                               ; preds = %27
  %32 = load i32, i32* %4, align 4
  %33 = sext i32 %32 to i64
  %34 = getelementptr inbounds [1000000 x i32], [1000000 x i32]* %2, i64 0, i64 %33
  %35 = load i32, i32* %34, align 4
  %36 = icmp eq i32 %35, 0
  br i1 %36, label %37, label %45

37:                                               ; preds = %31
  %38 = load i32, i32* %4, align 4
  %39 = load i32, i32* %1, align 4
  %40 = sdiv i32 %38, %39
  store i32 %40, i32* %5, align 4
  %41 = load i32, i32* %4, align 4
  %42 = load i32, i32* %1, align 4
  %43 = srem i32 %41, %42
  %44 = sub nsw i32 %43, 1
  store i32 %44, i32* %6, align 4
  br label %49

45:                                               ; preds = %31
  br label %46

46:                                               ; preds = %45
  %47 = load i32, i32* %4, align 4
  %48 = add nsw i32 %47, 1
  store i32 %48, i32* %4, align 4
  br label %27

49:                                               ; preds = %37, %27
  %50 = load i32, i32* %3, align 4
  %51 = sub nsw i32 %50, 1
  store i32 %51, i32* %4, align 4
  br label %52

52:                                               ; preds = %70, %49
  %53 = load i32, i32* %4, align 4
  %54 = icmp sge i32 %53, 0
  br i1 %54, label %55, label %73

55:                                               ; preds = %52
  %56 = load i32, i32* %4, align 4
  %57 = sext i32 %56 to i64
  %58 = getelementptr inbounds [1000000 x i32], [1000000 x i32]* %2, i64 0, i64 %57
  %59 = load i32, i32* %58, align 4
  %60 = icmp eq i32 %59, 0
  br i1 %60, label %61, label %69

61:                                               ; preds = %55
  %62 = load i32, i32* %4, align 4
  %63 = load i32, i32* %1, align 4
  %64 = sdiv i32 %62, %63
  store i32 %64, i32* %7, align 4
  %65 = load i32, i32* %4, align 4
  %66 = load i32, i32* %1, align 4
  %67 = srem i32 %65, %66
  %68 = sub nsw i32 %67, 1
  store i32 %68, i32* %8, align 4
  br label %73

69:                                               ; preds = %55
  br label %70

70:                                               ; preds = %69
  %71 = load i32, i32* %4, align 4
  %72 = add nsw i32 %71, -1
  store i32 %72, i32* %4, align 4
  br label %52

73:                                               ; preds = %61, %52
  %74 = load i32, i32* %7, align 4
  %75 = load i32, i32* %5, align 4
  %76 = sub nsw i32 %74, %75
  %77 = sub nsw i32 %76, 1
  %78 = load i32, i32* %8, align 4
  %79 = load i32, i32* %6, align 4
  %80 = sub nsw i32 %78, %79
  %81 = sub nsw i32 %80, 1
  %82 = mul nsw i32 %77, %81
  store i32 %82, i32* %9, align 4
  %83 = load i32, i32* %9, align 4
  %84 = call i32 (i8*, ...) @printf(i8* getelementptr inbounds ([3 x i8], [3 x i8]* @.str, i64 0, i64 0), i32 %83)
  ret void
}

declare dso_local i32 @__isoc99_scanf(i8*, ...) #1

declare dso_local i32 @printf(i8*, ...) #1


!llvm.module.flags = !{!0}
!llvm.ident = !{!1}

!0 = !{i32 1, !"wchar_size", i32 4}
!1 = !{!"clang version 10.0.0-4ubuntu1 "}
